target datalayout = "e-m:e-p270:32:32-p271:32:32-p272:64:64-i64:64-i128:128-f80:128-n8:16:32:64-S128"
target triple = "x86_64-pc-linux-gnu"

@hf_ieee802154_tsch_sync = internal global i32 0, align 4
@hf_ieee802154_tsch_asn = internal global i32 0, align 4
@hf_ieee802154_tsch_join_metric = internal global i32 0, align 4
@ett_ieee802154_tsch_synch = internal global i32 0, align 4

; Function Attrs: null_pointer_is_valid sspstrong uwtable
define internal i32 @dissect_802154_tsch_time_sync(ptr noundef %0, ptr noundef %1, ptr noundef %2, ptr noundef %3) #0 {
  %5 = alloca ptr, align 8
  %6 = alloca ptr, align 8
  %7 = alloca ptr, align 8
  %8 = alloca ptr, align 8
  %9 = alloca ptr, align 8
  store ptr %0, ptr %5, align 8
  store ptr %1, ptr %6, align 8
  store ptr %2, ptr %7, align 8
  store ptr %3, ptr %8, align 8
  call void @llvm.lifetime.start.p0(i64 8, ptr %9) #17
  %10 = load ptr, ptr %5, align 8
  %11 = load ptr, ptr %7, align 8
  %12 = load i32, ptr @hf_ieee802154_tsch_sync, align 4
  %13 = load i32, ptr @ett_ieee802154_tsch_synch, align 4
  %14 = call ptr @ieee802154_create_psie_tree(ptr noundef %10, ptr noundef %11, i32 noundef %12, i32 noundef %13)
  store ptr %14, ptr %9, align 8
  %15 = load ptr, ptr %9, align 8
  %16 = load i32, ptr @hf_ieee802154_tsch_asn, align 4
  %17 = load ptr, ptr %5, align 8
  %18 = call ptr @proto_tree_add_item(ptr noundef %15, i32 noundef %16, ptr noundef %17, i32 noundef 2, i32 noundef 5, i32 noundef -2147483648)
  %19 = load ptr, ptr %9, align 8
  %20 = load i32, ptr @hf_ieee802154_tsch_join_metric, align 4
  %21 = load ptr, ptr %5, align 8
  %22 = call ptr @proto_tree_add_item(ptr noundef %19, i32 noundef %20, ptr noundef %21, i32 noundef 7, i32 noundef 1, i32 noundef -2147483648)
  call void @llvm.lifetime.end.p0(i64 8, ptr %9) #17
  ret i32 8
}