; Function Attrs: null_pointer_is_valid sspstrong uwtable
define internal noundef i32 @dissect_802154_tsch_time_sync(ptr noundef %0, ptr readnone captures(none) %1, ptr noundef %2, ptr readnone captures(none) %3) #0 {
  %5 = load i32, ptr @hf_ieee802154_tsch_sync, align 4
  %6 = load i32, ptr @ett_ieee802154_tsch_synch, align 4
  %7 = tail call fastcc ptr @ieee802154_create_psie_tree(ptr noundef %0, ptr noundef %2, i32 noundef %5, i32 noundef %6)
  %8 = load i32, ptr @hf_ieee802154_tsch_asn, align 4
  %9 = tail call ptr @proto_tree_add_item(ptr noundef %7, i32 noundef %8, ptr noundef %0, i32 noundef 2, i32 noundef 5, i32 noundef -2147483648)
  %10 = load i32, ptr @hf_ieee802154_tsch_join_metric, align 4
  %11 = tail call ptr @proto_tree_add_item(ptr noundef %7, i32 noundef %10, ptr noundef %0, i32 noundef 7, i32 noundef 1, i32 noundef -2147483648)
  ret i32 8
}